target datalayout = "e-m:e-p270:32:32-p271:32:32-p272:64:64-i64:64-i128:128-f80:128-n8:16:32:64-S128"
target triple = "x86_64-pc-linux-gnu"

%struct.MemBuffer = type { i64, i64, i64, i64, ptr }
%struct.WebPData = type { ptr, i64 }
%struct.WebPDemuxer = type { %struct.MemBuffer, i32, i32, i32, i32, i32, i32, i32, i32, ptr, ptr, ptr, ptr }
%struct.ChunkData = type { i64, i64 }
%struct.Chunk = type { %struct.ChunkData, ptr }
%struct.WebPChunkIterator = type { i32, i32, %struct.WebPData, [6 x i32], ptr }

; Function Attrs: nounwind uwtable
define internal ptr @GetChunk(ptr noundef %0, ptr noundef %1, i32 noundef %2) #0 {
  %4 = alloca ptr, align 8
  %5 = alloca ptr, align 8
  %6 = alloca i32, align 4
  %7 = alloca ptr, align 8
  %8 = alloca ptr, align 8
  %9 = alloca i32, align 4
  %10 = alloca ptr, align 8
  %11 = alloca i32, align 4
  store ptr %0, ptr %4, align 8, !tbaa !16
  store ptr %1, ptr %5, align 8, !tbaa !34
  store i32 %2, ptr %6, align 4, !tbaa !8
  call void @llvm.lifetime.start.p0(i64 8, ptr %7) #7
  %12 = load ptr, ptr %4, align 8, !tbaa !16
  %13 = getelementptr inbounds nuw %struct.WebPDemuxer, ptr %12, i32 0, i32 0
  %14 = getelementptr inbounds nuw %struct.MemBuffer, ptr %13, i32 0, i32 4
  %15 = load ptr, ptr %14, align 8, !tbaa !73
  store ptr %15, ptr %7, align 8, !tbaa !34
  call void @llvm.lifetime.start.p0(i64 8, ptr %8) #7
  call void @llvm.lifetime.start.p0(i64 4, ptr %9) #7
  store i32 0, ptr %9, align 4, !tbaa !8
  %16 = load ptr, ptr %4, align 8, !tbaa !16
  %17 = getelementptr inbounds nuw %struct.WebPDemuxer, ptr %16, i32 0, i32 11
  %18 = load ptr, ptr %17, align 8, !tbaa !58
  store ptr %18, ptr %8, align 8, !tbaa !59
  br label %19

19:                                               ; preds = %45, %3
  %20 = load ptr, ptr %8, align 8, !tbaa !59
  %21 = icmp ne ptr %20, null
  br i1 %21, label %22, label %49

22:                                               ; preds = %19
  call void @llvm.lifetime.start.p0(i64 8, ptr %10) #7
  %23 = load ptr, ptr %7, align 8, !tbaa !34
  %24 = load ptr, ptr %8, align 8, !tbaa !59
  %25 = getelementptr inbounds nuw %struct.Chunk, ptr %24, i32 0, i32 0
  %26 = getelementptr inbounds nuw %struct.ChunkData, ptr %25, i32 0, i32 0
  %27 = load i64, ptr %26, align 8, !tbaa !74
  %28 = getelementptr inbounds nuw i8, ptr %23, i64 %27
  store ptr %28, ptr %10, align 8, !tbaa !34
  %29 = load ptr, ptr %10, align 8, !tbaa !34
  %30 = load ptr, ptr %5, align 8, !tbaa !34
  %31 = call i32 @memcmp(ptr noundef %29, ptr noundef %30, i64 noundef 4) #8
  %32 = icmp ne i32 %31, 0
  br i1 %32, label %36, label %33

33:                                               ; preds = %22
  %34 = load i32, ptr %9, align 4, !tbaa !8
  %35 = add nsw i32 %34, 1
  store i32 %35, ptr %9, align 4, !tbaa !8
  br label %36

36:                                               ; preds = %33, %22
  %37 = load i32, ptr %9, align 4, !tbaa !8
  %38 = load i32, ptr %6, align 4, !tbaa !8
  %39 = icmp eq i32 %37, %38
  br i1 %39, label %40, label %41

40:                                               ; preds = %36
  store i32 2, ptr %11, align 4
  br label %42

41:                                               ; preds = %36
  store i32 0, ptr %11, align 4
  br label %42

42:                                               ; preds = %41, %40
  call void @llvm.lifetime.end.p0(i64 8, ptr %10) #7
  %43 = load i32, ptr %11, align 4
  switch i32 %43, label %51 [
    i32 0, label %44
    i32 2, label %49
  ]

44:                                               ; preds = %42
  br label %45

45:                                               ; preds = %44
  %46 = load ptr, ptr %8, align 8, !tbaa !59
  %47 = getelementptr inbounds nuw %struct.Chunk, ptr %46, i32 0, i32 1
  %48 = load ptr, ptr %47, align 8, !tbaa !60
  store ptr %48, ptr %8, align 8, !tbaa !59
  br label %19, !llvm.loop !118

49:                                               ; preds = %42, %19
  %50 = load ptr, ptr %8, align 8, !tbaa !59
  store i32 1, ptr %11, align 4
  call void @llvm.lifetime.end.p0(i64 4, ptr %9) #7
  call void @llvm.lifetime.end.p0(i64 8, ptr %8) #7
  call void @llvm.lifetime.end.p0(i64 8, ptr %7) #7
  ret ptr %50

51:                                               ; preds = %42
  unreachable
}

; Function Attrs: nounwind uwtable
define internal i32 @ChunkCount(ptr noundef %0, ptr noundef %1) #0 {
  %3 = alloca ptr, align 8
  %4 = alloca ptr, align 8
  %5 = alloca ptr, align 8
  %6 = alloca ptr, align 8
  %7 = alloca i32, align 4
  %8 = alloca ptr, align 8
  store ptr %0, ptr %3, align 8, !tbaa !16
  store ptr %1, ptr %4, align 8, !tbaa !34
  call void @llvm.lifetime.start.p0(i64 8, ptr %5) #7
  %9 = load ptr, ptr %3, align 8, !tbaa !16
  %10 = getelementptr inbounds nuw %struct.WebPDemuxer, ptr %9, i32 0, i32 0
  %11 = getelementptr inbounds nuw %struct.MemBuffer, ptr %10, i32 0, i32 4
  %12 = load ptr, ptr %11, align 8, !tbaa !73
  store ptr %12, ptr %5, align 8, !tbaa !34
  call void @llvm.lifetime.start.p0(i64 8, ptr %6) #7
  call void @llvm.lifetime.start.p0(i64 4, ptr %7) #7
  store i32 0, ptr %7, align 4, !tbaa !8
  %13 = load ptr, ptr %3, align 8, !tbaa !16
  %14 = getelementptr inbounds nuw %struct.WebPDemuxer, ptr %13, i32 0, i32 11
  %15 = load ptr, ptr %14, align 8, !tbaa !58
  store ptr %15, ptr %6, align 8, !tbaa !59
  br label %16

16:                                               ; preds = %34, %2
  %17 = load ptr, ptr %6, align 8, !tbaa !59
  %18 = icmp ne ptr %17, null
  br i1 %18, label %19, label %38

19:                                               ; preds = %16
  call void @llvm.lifetime.start.p0(i64 8, ptr %8) #7
  %20 = load ptr, ptr %5, align 8, !tbaa !34
  %21 = load ptr, ptr %6, align 8, !tbaa !59
  %22 = getelementptr inbounds nuw %struct.Chunk, ptr %21, i32 0, i32 0
  %23 = getelementptr inbounds nuw %struct.ChunkData, ptr %22, i32 0, i32 0
  %24 = load i64, ptr %23, align 8, !tbaa !74
  %25 = getelementptr inbounds nuw i8, ptr %20, i64 %24
  store ptr %25, ptr %8, align 8, !tbaa !34
  %26 = load ptr, ptr %8, align 8, !tbaa !34
  %27 = load ptr, ptr %4, align 8, !tbaa !34
  %28 = call i32 @memcmp(ptr noundef %26, ptr noundef %27, i64 noundef 4) #8
  %29 = icmp ne i32 %28, 0
  br i1 %29, label %33, label %30

30:                                               ; preds = %19
  %31 = load i32, ptr %7, align 4, !tbaa !8
  %32 = add nsw i32 %31, 1
  store i32 %32, ptr %7, align 4, !tbaa !8
  br label %33

33:                                               ; preds = %30, %19
  call void @llvm.lifetime.end.p0(i64 8, ptr %8) #7
  br label %34

34:                                               ; preds = %33
  %35 = load ptr, ptr %6, align 8, !tbaa !59
  %36 = getelementptr inbounds nuw %struct.Chunk, ptr %35, i32 0, i32 1
  %37 = load ptr, ptr %36, align 8, !tbaa !60
  store ptr %37, ptr %6, align 8, !tbaa !59
  br label %16, !llvm.loop !117

38:                                               ; preds = %16
  %39 = load i32, ptr %7, align 4, !tbaa !8
  call void @llvm.lifetime.end.p0(i64 4, ptr %7) #7
  call void @llvm.lifetime.end.p0(i64 8, ptr %6) #7
  call void @llvm.lifetime.end.p0(i64 8, ptr %5) #7
  ret i32 %39
}

; Function Attrs: nounwind uwtable
define internal i32 @SetChunk(ptr noundef %0, i32 noundef %1, ptr noundef %2) #0 {
  %4 = alloca i32, align 4
  %5 = alloca ptr, align 8
  %6 = alloca i32, align 4
  %7 = alloca ptr, align 8
  %8 = alloca ptr, align 8
  %9 = alloca i32, align 4
  %10 = alloca i32, align 4
  %11 = alloca ptr, align 8
  %12 = alloca ptr, align 8
  store ptr %0, ptr %5, align 8, !tbaa !34
  store i32 %1, ptr %6, align 4, !tbaa !8
  store ptr %2, ptr %7, align 8, !tbaa !69
  call void @llvm.lifetime.start.p0(i64 8, ptr %8) #7
  %13 = load ptr, ptr %7, align 8, !tbaa !69
  %14 = getelementptr inbounds nuw %struct.WebPChunkIterator, ptr %13, i32 0, i32 4
  %15 = load ptr, ptr %14, align 8, !tbaa !71
  store ptr %15, ptr %8, align 8, !tbaa !16
  call void @llvm.lifetime.start.p0(i64 4, ptr %9) #7
  %16 = load ptr, ptr %8, align 8, !tbaa !16
  %17 = icmp eq ptr %16, null
  br i1 %17, label %24, label %18

18:                                               ; preds = %3
  %19 = load ptr, ptr %5, align 8, !tbaa !34
  %20 = icmp eq ptr %19, null
  br i1 %20, label %24, label %21

21:                                               ; preds = %18
  %22 = load i32, ptr %6, align 4, !tbaa !8
  %23 = icmp slt i32 %22, 0
  br i1 %23, label %24, label %25

24:                                               ; preds = %21, %18, %3
  store i32 0, ptr %4, align 4
  store i32 1, ptr %10, align 4
  br label %75

25:                                               ; preds = %21
  %26 = load ptr, ptr %8, align 8, !tbaa !16
  %27 = load ptr, ptr %5, align 8, !tbaa !34
  %28 = call i32 @ChunkCount(ptr noundef %26, ptr noundef %27)
  store i32 %28, ptr %9, align 4, !tbaa !8
  %29 = load i32, ptr %9, align 4, !tbaa !8
  %30 = icmp eq i32 %29, 0
  br i1 %30, label %31, label %32

31:                                               ; preds = %25
  store i32 0, ptr %4, align 4
  store i32 1, ptr %10, align 4
  br label %75

32:                                               ; preds = %25
  %33 = load i32, ptr %6, align 4, !tbaa !8
  %34 = icmp eq i32 %33, 0
  br i1 %34, label %35, label %37

35:                                               ; preds = %32
  %36 = load i32, ptr %9, align 4, !tbaa !8
  store i32 %36, ptr %6, align 4, !tbaa !8
  br label %37

37:                                               ; preds = %35, %32
  %38 = load i32, ptr %6, align 4, !tbaa !8
  %39 = load i32, ptr %9, align 4, !tbaa !8
  %40 = icmp sle i32 %38, %39
  br i1 %40, label %41, label %74

41:                                               ; preds = %37
  call void @llvm.lifetime.start.p0(i64 8, ptr %11) #7
  %42 = load ptr, ptr %8, align 8, !tbaa !16
  %43 = getelementptr inbounds nuw %struct.WebPDemuxer, ptr %42, i32 0, i32 0
  %44 = getelementptr inbounds nuw %struct.MemBuffer, ptr %43, i32 0, i32 4
  %45 = load ptr, ptr %44, align 8, !tbaa !73
  store ptr %45, ptr %11, align 8, !tbaa !34
  call void @llvm.lifetime.start.p0(i64 8, ptr %12) #7
  %46 = load ptr, ptr %8, align 8, !tbaa !16
  %47 = load ptr, ptr %5, align 8, !tbaa !34
  %48 = load i32, ptr %6, align 4, !tbaa !8
  %49 = call ptr @GetChunk(ptr noundef %46, ptr noundef %47, i32 noundef %48)
  store ptr %49, ptr %12, align 8, !tbaa !59
  %50 = load ptr, ptr %11, align 8, !tbaa !34
  %51 = load ptr, ptr %12, align 8, !tbaa !59
  %52 = getelementptr inbounds nuw %struct.Chunk, ptr %51, i32 0, i32 0
  %53 = getelementptr inbounds nuw %struct.ChunkData, ptr %52, i32 0, i32 0
  %54 = load i64, ptr %53, align 8, !tbaa !74
  %55 = getelementptr inbounds nuw i8, ptr %50, i64 %54
  %56 = getelementptr inbounds i8, ptr %55, i64 8
  %57 = load ptr, ptr %7, align 8, !tbaa !69
  %58 = getelementptr inbounds nuw %struct.WebPChunkIterator, ptr %57, i32 0, i32 2
  %59 = getelementptr inbounds nuw %struct.WebPData, ptr %58, i32 0, i32 0
  store ptr %56, ptr %59, align 8, !tbaa !75
  %60 = load ptr, ptr %12, align 8, !tbaa !59
  %61 = getelementptr inbounds nuw %struct.Chunk, ptr %60, i32 0, i32 0
  %62 = getelementptr inbounds nuw %struct.ChunkData, ptr %61, i32 0, i32 1
  %63 = load i64, ptr %62, align 8, !tbaa !76
  %64 = sub i64 %63, 8
  %65 = load ptr, ptr %7, align 8, !tbaa !69
  %66 = getelementptr inbounds nuw %struct.WebPChunkIterator, ptr %65, i32 0, i32 2
  %67 = getelementptr inbounds nuw %struct.WebPData, ptr %66, i32 0, i32 1
  store i64 %64, ptr %67, align 8, !tbaa !77
  %68 = load i32, ptr %9, align 4, !tbaa !8
  %69 = load ptr, ptr %7, align 8, !tbaa !69
  %70 = getelementptr inbounds nuw %struct.WebPChunkIterator, ptr %69, i32 0, i32 1
  store i32 %68, ptr %70, align 4, !tbaa !78
  %71 = load i32, ptr %6, align 4, !tbaa !8
  %72 = load ptr, ptr %7, align 8, !tbaa !69
  %73 = getelementptr inbounds nuw %struct.WebPChunkIterator, ptr %72, i32 0, i32 0
  store i32 %71, ptr %73, align 8, !tbaa !79
  store i32 1, ptr %4, align 4
  store i32 1, ptr %10, align 4
  call void @llvm.lifetime.end.p0(i64 8, ptr %12) #7
  call void @llvm.lifetime.end.p0(i64 8, ptr %11) #7
  br label %75

74:                                               ; preds = %37
  store i32 0, ptr %4, align 4
  store i32 1, ptr %10, align 4
  br label %75

75:                                               ; preds = %74, %41, %31, %24
  call void @llvm.lifetime.end.p0(i64 4, ptr %9) #7
  call void @llvm.lifetime.end.p0(i64 8, ptr %8) #7
  %76 = load i32, ptr %4, align 4
  ret i32 %76
}