; Function Attrs: nofree nounwind memory(read, argmem: readwrite, inaccessiblemem: none) uwtable
define internal fastcc range(i32 0, 2) i32 @SetChunk(ptr noundef readonly captures(address_is_null) %0, i32 noundef %1, ptr noundef nonnull captures(none) %2) unnamed_addr #7 {
  %4 = getelementptr inbounds nuw i8, ptr %2, i64 48
  %5 = load ptr, ptr %4, align 8, !tbaa !78
  %6 = icmp eq ptr %5, null
  %7 = icmp eq ptr %0, null
  %or.cond = or i1 %7, %6
  %8 = icmp slt i32 %1, 0
  %or.cond3 = or i1 %8, %or.cond
  br i1 %or.cond3, label %ChunkCount.exit.thread, label %9

9:                                                ; preds = %3
  %10 = getelementptr inbounds nuw i8, ptr %5, i64 32
  %11 = load ptr, ptr %10, align 8, !tbaa !59
  %12 = getelementptr inbounds nuw i8, ptr %5, i64 88
  %.011.i = load ptr, ptr %12, align 8, !tbaa !80
  %.not12.i = icmp eq ptr %.011.i, null
  br i1 %.not12.i, label %ChunkCount.exit.thread, label %.lr.ph.i

.lr.ph.i:                                         ; preds = %9, %.lr.ph.i
  %.014.i = phi ptr [ %.0.i, %.lr.ph.i ], [ %.011.i, %9 ]
  %.0913.i = phi i32 [ %spec.select.i, %.lr.ph.i ], [ 0, %9 ]
  %13 = load i64, ptr %.014.i, align 8, !tbaa !81
  %14 = getelementptr inbounds nuw i8, ptr %11, i64 %13
  %bcmp.i = tail call i32 @bcmp(ptr noundef nonnull dereferenceable(4) %14, ptr noundef nonnull readonly dereferenceable(4) %0, i64 4)
  %.not10.i = icmp eq i32 %bcmp.i, 0
  %15 = zext i1 %.not10.i to i32
  %spec.select.i = add nuw nsw i32 %.0913.i, %15
  %16 = getelementptr inbounds nuw i8, ptr %.014.i, i64 16
  %.0.i = load ptr, ptr %16, align 8, !tbaa !80
  %.not.i = icmp eq ptr %.0.i, null
  br i1 %.not.i, label %ChunkCount.exit, label %.lr.ph.i, !llvm.loop !82

ChunkCount.exit:                                  ; preds = %.lr.ph.i
  %17 = icmp eq i32 %spec.select.i, 0
  br i1 %17, label %ChunkCount.exit.thread, label %18

18:                                               ; preds = %ChunkCount.exit
  %19 = icmp eq i32 %1, 0
  %spec.select = select i1 %19, i32 %spec.select.i, i32 %1
  %.not = icmp sgt i32 %spec.select, %spec.select.i
  br i1 %.not, label %ChunkCount.exit.thread, label %.lr.ph.i32.preheader

.lr.ph.i32.preheader:                             ; preds = %18
  %20 = load i64, ptr %.011.i, align 8, !tbaa !81
  %21 = getelementptr inbounds nuw i8, ptr %11, i64 %20
  %bcmp.i3337 = tail call i32 @bcmp(ptr noundef nonnull dereferenceable(4) %21, ptr noundef nonnull readonly dereferenceable(4) %0, i64 4)
  %.not14.i38 = icmp eq i32 %bcmp.i3337, 0
  %22 = zext i1 %.not14.i38 to i32
  %23 = icmp eq i32 %spec.select, %22
  br i1 %23, label %GetChunk.exit, label %.lr.ph.i32

.lr.ph.i32:                                       ; preds = %.lr.ph.i32.preheader, %.lr.ph.i32
  %spec.select.i3440 = phi i32 [ %spec.select.i34, %.lr.ph.i32 ], [ %22, %.lr.ph.i32.preheader ]
  %.01218.i39 = phi ptr [ %.012.i, %.lr.ph.i32 ], [ %.011.i, %.lr.ph.i32.preheader ]
  %24 = getelementptr inbounds nuw i8, ptr %.01218.i39, i64 16
  %.012.i = load ptr, ptr %24, align 8, !tbaa !80, !nonnull !83, !noundef !83
  %25 = load i64, ptr %.012.i, align 8, !tbaa !81
  %26 = getelementptr inbounds nuw i8, ptr %11, i64 %25
  %bcmp.i33 = tail call i32 @bcmp(ptr noundef nonnull dereferenceable(4) %26, ptr noundef nonnull readonly dereferenceable(4) %0, i64 4)
  %.not14.i = icmp eq i32 %bcmp.i33, 0
  %27 = zext i1 %.not14.i to i32
  %spec.select.i34 = add nuw nsw i32 %spec.select.i3440, %27
  %28 = icmp eq i32 %spec.select.i34, %spec.select
  br i1 %28, label %GetChunk.exit, label %.lr.ph.i32

GetChunk.exit:                                    ; preds = %.lr.ph.i32, %.lr.ph.i32.preheader
  %29 = phi i64 [ %20, %.lr.ph.i32.preheader ], [ %25, %.lr.ph.i32 ]
  %.01218.i.lcssa = phi ptr [ %.011.i, %.lr.ph.i32.preheader ], [ %.012.i, %.lr.ph.i32 ]
  %30 = getelementptr inbounds nuw i8, ptr %11, i64 %29
  %31 = getelementptr inbounds nuw i8, ptr %30, i64 8
  %32 = getelementptr inbounds nuw i8, ptr %2, i64 8
  store ptr %31, ptr %32, align 8, !tbaa !84
  %33 = getelementptr inbounds nuw i8, ptr %.01218.i.lcssa, i64 8
  %34 = load i64, ptr %33, align 8, !tbaa !85
  %35 = add i64 %34, -8
  %36 = getelementptr inbounds nuw i8, ptr %2, i64 16
  store i64 %35, ptr %36, align 8, !tbaa !86
  %37 = getelementptr inbounds nuw i8, ptr %2, i64 4
  store i32 %spec.select.i, ptr %37, align 4, !tbaa !87
  store i32 %spec.select, ptr %2, align 8, !tbaa !88
  br label %ChunkCount.exit.thread

ChunkCount.exit.thread:                           ; preds = %9, %18, %ChunkCount.exit, %3, %GetChunk.exit
  %.0 = phi i32 [ 1, %GetChunk.exit ], [ 0, %3 ], [ 0, %ChunkCount.exit ], [ 0, %18 ], [ 0, %9 ]
  ret i32 %.0
}